; Function Attrs: nounwind uwtable
define ptr @Kit_GraphToHop(ptr noundef %0, ptr noundef readonly captures(none) %1) local_unnamed_addr #0 {
  %3 = getelementptr inbounds nuw i8, ptr %1, i64 4
  %4 = load i32, ptr %3, align 4
  %5 = icmp sgt i32 %4, 0
  br i1 %5, label %.lr.ph, label %.critedge

.lr.ph:                                           ; preds = %2
  %6 = getelementptr i8, ptr %1, i64 16
  br label %7

7:                                                ; preds = %.lr.ph, %7
  %indvars.iv = phi i64 [ 0, %.lr.ph ], [ %indvars.iv.next, %7 ]
  %.val = load ptr, ptr %6, align 8
  %8 = trunc nuw nsw i64 %indvars.iv to i32
  %9 = tail call ptr @Hop_IthVar(ptr noundef %0, i32 noundef %8) #14
  %10 = getelementptr inbounds nuw %struct.Kit_Node_t_, ptr %.val, i64 %indvars.iv, i32 2
  store ptr %9, ptr %10, align 8
  %indvars.iv.next = add nuw nsw i64 %indvars.iv, 1
  %11 = load i32, ptr %3, align 4
  %12 = sext i32 %11 to i64
  %13 = icmp slt i64 %indvars.iv.next, %12
  br i1 %13, label %7, label %.critedge, !llvm.loop !9

.critedge:                                        ; preds = %7, %2
  %.lcssa9 = phi i32 [ %4, %2 ], [ %11, %7 ]
  %.val.i = load i32, ptr %1, align 8
  %.not.i = icmp eq i32 %.val.i, 0
  %14 = getelementptr i8, ptr %1, i64 24
  %.val31.i = load i32, ptr %14, align 8
  br i1 %.not.i, label %21, label %15

15:                                               ; preds = %.critedge
  %16 = getelementptr i8, ptr %0, i64 24
  %.val37.i = load ptr, ptr %16, align 8
  %17 = and i32 %.val31.i, 1
  %18 = ptrtoint ptr %.val37.i to i64
  %19 = zext nneg i32 %17 to i64
  %20 = xor i64 %18, %19
  br label %Kit_GraphToHopInternal.exit

21:                                               ; preds = %.critedge
  %22 = lshr i32 %.val31.i, 1
  %23 = and i32 %22, 1073741823
  %.not38.i = icmp ult i32 %23, %.lcssa9
  br i1 %.not38.i, label %29, label %.preheader.i

.preheader.i:                                     ; preds = %21
  %24 = getelementptr inbounds nuw i8, ptr %1, i64 8
  %25 = load i32, ptr %24, align 8
  %26 = icmp slt i32 %.lcssa9, %25
  tail call void @llvm.assume(i1 %26)
  %27 = getelementptr i8, ptr %1, i64 16
  %28 = zext nneg i32 %.lcssa9 to i64
  br label %38

29:                                               ; preds = %21
  %30 = getelementptr i8, ptr %1, i64 16
  %.val35.i = load ptr, ptr %30, align 8
  %31 = zext nneg i32 %23 to i64
  %32 = getelementptr inbounds nuw %struct.Kit_Node_t_, ptr %.val35.i, i64 %31, i32 2
  %33 = load ptr, ptr %32, align 8
  %34 = and i32 %.val31.i, 1
  %35 = ptrtoint ptr %33 to i64
  %36 = zext nneg i32 %34 to i64
  %37 = xor i64 %35, %36
  br label %Kit_GraphToHopInternal.exit

38:                                               ; preds = %38, %.preheader.i
  %indvars.iv.i = phi i64 [ %28, %.preheader.i ], [ %indvars.iv.next.i, %38 ]
  %.val34.i = load ptr, ptr %27, align 8
  %39 = getelementptr inbounds nuw %struct.Kit_Node_t_, ptr %.val34.i, i64 %indvars.iv.i
  %40 = load i32, ptr %39, align 8
  %41 = lshr i32 %40, 1
  %42 = and i32 %41, 1073741823
  %43 = zext nneg i32 %42 to i64
  %44 = getelementptr inbounds nuw %struct.Kit_Node_t_, ptr %.val34.i, i64 %43, i32 2
  %45 = load ptr, ptr %44, align 8
  %46 = and i32 %40, 1
  %47 = ptrtoint ptr %45 to i64
  %48 = zext nneg i32 %46 to i64
  %49 = xor i64 %48, %47
  %50 = inttoptr i64 %49 to ptr
  %51 = getelementptr inbounds nuw i8, ptr %39, i64 4
  %52 = load i32, ptr %51, align 4
  %53 = lshr i32 %52, 1
  %54 = and i32 %53, 1073741823
  %55 = zext nneg i32 %54 to i64
  %56 = getelementptr inbounds nuw %struct.Kit_Node_t_, ptr %.val34.i, i64 %55, i32 2
  %57 = load ptr, ptr %56, align 8
  %58 = and i32 %52, 1
  %59 = ptrtoint ptr %57 to i64
  %60 = zext nneg i32 %58 to i64
  %61 = xor i64 %60, %59
  %62 = inttoptr i64 %61 to ptr
  %63 = tail call ptr @Hop_And(ptr noundef %0, ptr noundef %50, ptr noundef %62) #14
  %64 = getelementptr inbounds nuw i8, ptr %39, i64 8
  store ptr %63, ptr %64, align 8
  %indvars.iv.next.i = add nuw nsw i64 %indvars.iv.i, 1
  %65 = load i32, ptr %24, align 8
  %66 = sext i32 %65 to i64
  %67 = icmp slt i64 %indvars.iv.next.i, %66
  br i1 %67, label %38, label %.critedge.i, !llvm.loop !8

.critedge.i:                                      ; preds = %38
  %.val27.i = load i32, ptr %14, align 8
  %68 = and i32 %.val27.i, 1
  %69 = ptrtoint ptr %63 to i64
  %70 = zext nneg i32 %68 to i64
  %71 = xor i64 %70, %69
  br label %Kit_GraphToHopInternal.exit

Kit_GraphToHopInternal.exit:                      ; preds = %15, %29, %.critedge.i
  %.024.in.i = phi i64 [ %20, %15 ], [ %37, %29 ], [ %71, %.critedge.i ]
  %.024.i = inttoptr i64 %.024.in.i to ptr
  ret ptr %.024.i
}